target datalayout = "e-m:e-p270:32:32-p271:32:32-p272:64:64-i64:64-i128:128-f80:128-n8:16:32:64-S128"
target triple = "x86_64-unknown-linux-gnu"

%"struct.OpenImageIO_v2_6_0::TypeDesc" = type { i8, i8, i8, i8, i32 }
%"class.OpenImageIO_v2_6_0::DDSInput" = type <{ %"class.OpenImageIO_v2_6_0::ImageInput", %"class.std::__cxx11::basic_string", %"class.std::vector.16", i32, i32, i32, i32, i32, [4 x i32], [4 x i32], i32, %"struct.OpenImageIO_v2_6_0::DDS_pvt::dds_header", %"struct.OpenImageIO_v2_6_0::DDS_pvt::dds_header_dx10", [4 x i8] }>
%"class.OpenImageIO_v2_6_0::ImageInput" = type { ptr, %"class.OpenImageIO_v2_6_0::ImageSpec", %"class.std::unique_ptr" }
%"class.OpenImageIO_v2_6_0::ImageSpec" = type { i32, i32, i32, i32, i32, i32, i32, i32, i32, i32, i32, i32, i32, i32, i32, i32, %"struct.OpenImageIO_v2_6_0::TypeDesc", %"class.std::vector", %"class.std::vector.0", i32, i32, i8, %"class.OpenImageIO_v2_6_0::ParamValueList" }
%"class.std::vector" = type { %"struct.std::_Vector_base" }
%"struct.std::_Vector_base" = type { %"struct.std::_Vector_base<OpenImageIO_v2_6_0::TypeDesc, std::allocator<OpenImageIO_v2_6_0::TypeDesc>>::_Vector_impl" }
%"struct.std::_Vector_base<OpenImageIO_v2_6_0::TypeDesc, std::allocator<OpenImageIO_v2_6_0::TypeDesc>>::_Vector_impl" = type { %"struct.std::_Vector_base<OpenImageIO_v2_6_0::TypeDesc, std::allocator<OpenImageIO_v2_6_0::TypeDesc>>::_Vector_impl_data" }
%"struct.std::_Vector_base<OpenImageIO_v2_6_0::TypeDesc, std::allocator<OpenImageIO_v2_6_0::TypeDesc>>::_Vector_impl_data" = type { ptr, ptr, ptr }
%"class.std::vector.0" = type { %"struct.std::_Vector_base.1" }
%"struct.std::_Vector_base.1" = type { %"struct.std::_Vector_base<std::__cxx11::basic_string<char>, std::allocator<std::__cxx11::basic_string<char>>>::_Vector_impl" }
%"struct.std::_Vector_base<std::__cxx11::basic_string<char>, std::allocator<std::__cxx11::basic_string<char>>>::_Vector_impl" = type { %"struct.std::_Vector_base<std::__cxx11::basic_string<char>, std::allocator<std::__cxx11::basic_string<char>>>::_Vector_impl_data" }
%"struct.std::_Vector_base<std::__cxx11::basic_string<char>, std::allocator<std::__cxx11::basic_string<char>>>::_Vector_impl_data" = type { ptr, ptr, ptr }
%"class.OpenImageIO_v2_6_0::ParamValueList" = type { %"class.std::vector.5" }
%"class.std::vector.5" = type { %"struct.std::_Vector_base.6" }
%"struct.std::_Vector_base.6" = type { %"struct.std::_Vector_base<OpenImageIO_v2_6_0::ParamValue, std::allocator<OpenImageIO_v2_6_0::ParamValue>>::_Vector_impl" }
%"struct.std::_Vector_base<OpenImageIO_v2_6_0::ParamValue, std::allocator<OpenImageIO_v2_6_0::ParamValue>>::_Vector_impl" = type { %"struct.std::_Vector_base<OpenImageIO_v2_6_0::ParamValue, std::allocator<OpenImageIO_v2_6_0::ParamValue>>::_Vector_impl_data" }
%"struct.std::_Vector_base<OpenImageIO_v2_6_0::ParamValue, std::allocator<OpenImageIO_v2_6_0::ParamValue>>::_Vector_impl_data" = type { ptr, ptr, ptr }
%"class.std::unique_ptr" = type { %"struct.std::__uniq_ptr_data" }
%"struct.std::__uniq_ptr_data" = type { %"class.std::__uniq_ptr_impl" }
%"class.std::__uniq_ptr_impl" = type { %"class.std::tuple" }
%"class.std::tuple" = type { %"struct.std::_Tuple_impl" }
%"struct.std::_Tuple_impl" = type { %"struct.std::_Tuple_impl.10", %"struct.std::_Head_base.11" }
%"struct.std::_Tuple_impl.10" = type { %"struct.std::_Head_base" }
%"struct.std::_Head_base" = type { ptr }
%"struct.std::_Head_base.11" = type { ptr }
%"class.std::__cxx11::basic_string" = type { %"struct.std::__cxx11::basic_string<char>::_Alloc_hider", i64, %union.anon.15 }
%"struct.std::__cxx11::basic_string<char>::_Alloc_hider" = type { ptr }
%union.anon.15 = type { i64, [8 x i8] }
%"class.std::vector.16" = type { %"struct.std::_Vector_base.17" }
%"struct.std::_Vector_base.17" = type { %"struct.std::_Vector_base<unsigned char, std::allocator<unsigned char>>::_Vector_impl" }
%"struct.std::_Vector_base<unsigned char, std::allocator<unsigned char>>::_Vector_impl" = type { %"struct.std::_Vector_base<unsigned char, std::allocator<unsigned char>>::_Vector_impl_data" }
%"struct.std::_Vector_base<unsigned char, std::allocator<unsigned char>>::_Vector_impl_data" = type { ptr, ptr, ptr }
%"struct.OpenImageIO_v2_6_0::DDS_pvt::dds_header" = type { i32, i32, i32, i32, i32, i32, i32, i32, [11 x i32], %"struct.OpenImageIO_v2_6_0::DDS_pvt::dds_pixformat", %"struct.OpenImageIO_v2_6_0::DDS_pvt::dds_caps", i32 }
%"struct.OpenImageIO_v2_6_0::DDS_pvt::dds_pixformat" = type { i32, i32, i32, i32, [4 x i32] }
%"struct.OpenImageIO_v2_6_0::DDS_pvt::dds_caps" = type { i32, i32, i32, i32 }
%"struct.OpenImageIO_v2_6_0::DDS_pvt::dds_header_dx10" = type { i32, i32, i32, i32, i32 }

; Function Attrs: mustprogress nounwind uwtable
define internal noundef i64 @_ZN18OpenImageIO_v2_6_0L12GetBlockSizeENS_7DDS_pvt11CompressionE(i32 noundef %cmp) #4 {
entry:
  %cmp.addr = alloca i32, align 4
  store i32 %cmp, ptr %cmp.addr, align 4
  %0 = load i32, ptr %cmp.addr, align 4
  %cmp1 = icmp eq i32 %0, 1
  br i1 %cmp1, label %lor.end, label %lor.rhs

lor.rhs:                                          ; preds = %entry
  %1 = load i32, ptr %cmp.addr, align 4
  %cmp2 = icmp eq i32 %1, 6
  br label %lor.end

lor.end:                                          ; preds = %lor.rhs, %entry
  %2 = phi i1 [ true, %entry ], [ %cmp2, %lor.rhs ]
  %cond = select i1 %2, i32 8, i32 16
  %conv = sext i32 %cond to i64
  ret i64 %conv
}

; Function Attrs: mustprogress uwtable
define internal noundef i64 @_ZN18OpenImageIO_v2_6_0L22GetStorageRequirementsEmmNS_7DDS_pvt11CompressionE(i64 noundef %width, i64 noundef %height, i32 noundef %cmp) #6 {
entry:
  %width.addr = alloca i64, align 8
  %height.addr = alloca i64, align 8
  %cmp.addr = alloca i32, align 4
  %blockCount = alloca i64, align 8
  store i64 %width, ptr %width.addr, align 8
  store i64 %height, ptr %height.addr, align 8
  store i32 %cmp, ptr %cmp.addr, align 4
  %0 = load i64, ptr %width.addr, align 8
  %add = add i64 %0, 4
  %sub = sub i64 %add, 1
  %div = udiv i64 %sub, 4
  %1 = load i64, ptr %height.addr, align 8
  %add1 = add i64 %1, 4
  %sub2 = sub i64 %add1, 1
  %div3 = udiv i64 %sub2, 4
  %mul = mul i64 %div, %div3
  store i64 %mul, ptr %blockCount, align 8
  %2 = load i64, ptr %blockCount, align 8
  %3 = load i32, ptr %cmp.addr, align 4
  %call = call noundef i64 @_ZN18OpenImageIO_v2_6_0L12GetBlockSizeENS_7DDS_pvt11CompressionE(i32 noundef %3)
  %mul4 = mul i64 %2, %call
  ret i64 %mul4
}

; Function Attrs: mustprogress uwtable
define hidden void @_ZN18OpenImageIO_v2_6_08DDSInput22internal_seek_subimageEiiRjS1_S1_(ptr noundef nonnull align 8 dereferenceable(448) %this, i32 noundef %cubeface, i32 noundef %miplevel, ptr noundef nonnull align 4 dereferenceable(4) %w, ptr noundef nonnull align 4 dereferenceable(4) %h, ptr noundef nonnull align 4 dereferenceable(4) %d) #6 align 2 {
entry:
  %this.addr = alloca ptr, align 8
  %cubeface.addr = alloca i32, align 4
  %miplevel.addr = alloca i32, align 4
  %w.addr = alloca ptr, align 8
  %h.addr = alloca ptr, align 8
  %d.addr = alloca ptr, align 8
  %ofs = alloca i32, align 4
  %len = alloca i32, align 4
  %j = alloca i32, align 4
  %seekLevel = alloca i32, align 4
  %i = alloca i32, align 4
  store ptr %this, ptr %this.addr, align 8
  store i32 %cubeface, ptr %cubeface.addr, align 4
  store i32 %miplevel, ptr %miplevel.addr, align 4
  store ptr %w, ptr %w.addr, align 8
  store ptr %h, ptr %h.addr, align 8
  store ptr %d, ptr %d.addr, align 8
  %this1 = load ptr, ptr %this.addr, align 8
  %m_dds = getelementptr inbounds %"class.OpenImageIO_v2_6_0::DDSInput", ptr %this1, i32 0, i32 11
  %caps = getelementptr inbounds %"struct.OpenImageIO_v2_6_0::DDS_pvt::dds_header", ptr %m_dds, i32 0, i32 10
  %flags2 = getelementptr inbounds %"struct.OpenImageIO_v2_6_0::DDS_pvt::dds_caps", ptr %caps, i32 0, i32 1
  %0 = load i32, ptr %flags2, align 4
  %and = and i32 %0, 512
  %tobool = icmp ne i32 %and, 0
  br i1 %tobool, label %land.lhs.true, label %if.end

land.lhs.true:                                    ; preds = %entry
  %m_dds2 = getelementptr inbounds %"class.OpenImageIO_v2_6_0::DDSInput", ptr %this1, i32 0, i32 11
  %caps3 = getelementptr inbounds %"struct.OpenImageIO_v2_6_0::DDS_pvt::dds_header", ptr %m_dds2, i32 0, i32 10
  %flags24 = getelementptr inbounds %"struct.OpenImageIO_v2_6_0::DDS_pvt::dds_caps", ptr %caps3, i32 0, i32 1
  %1 = load i32, ptr %flags24, align 4
  %2 = load i32, ptr %cubeface.addr, align 4
  %shl = shl i32 1024, %2
  %and5 = and i32 %1, %shl
  %tobool6 = icmp ne i32 %and5, 0
  br i1 %tobool6, label %if.end, label %if.then

if.then:                                          ; preds = %land.lhs.true
  %3 = load ptr, ptr %d.addr, align 8
  store i32 0, ptr %3, align 4
  %4 = load ptr, ptr %h.addr, align 8
  store i32 0, ptr %4, align 4
  %5 = load ptr, ptr %w.addr, align 8
  store i32 0, ptr %5, align 4
  br label %return

if.end:                                           ; preds = %land.lhs.true, %entry
  store i32 128, ptr %ofs, align 4
  %m_dds7 = getelementptr inbounds %"class.OpenImageIO_v2_6_0::DDSInput", ptr %this1, i32 0, i32 11
  %fmt = getelementptr inbounds %"struct.OpenImageIO_v2_6_0::DDS_pvt::dds_header", ptr %m_dds7, i32 0, i32 9
  %fourCC = getelementptr inbounds %"struct.OpenImageIO_v2_6_0::DDS_pvt::dds_pixformat", ptr %fmt, i32 0, i32 2
  %6 = load i32, ptr %fourCC, align 4
  %cmp = icmp eq i32 %6, 808540228
  br i1 %cmp, label %if.then8, label %if.end10

if.then8:                                         ; preds = %if.end
  %7 = load i32, ptr %ofs, align 4
  %conv = zext i32 %7 to i64
  %add = add i64 %conv, 20
  %conv9 = trunc i64 %add to i32
  store i32 %conv9, ptr %ofs, align 4
  br label %if.end10

if.end10:                                         ; preds = %if.then8, %if.end
  store i32 0, ptr %j, align 4
  br label %for.cond

for.cond:                                         ; preds = %for.inc64, %if.end10
  %8 = load i32, ptr %j, align 4
  %9 = load i32, ptr %cubeface.addr, align 4
  %cmp11 = icmp sle i32 %8, %9
  br i1 %cmp11, label %for.body, label %for.end66

for.body:                                         ; preds = %for.cond
  %m_dds12 = getelementptr inbounds %"class.OpenImageIO_v2_6_0::DDSInput", ptr %this1, i32 0, i32 11
  %width = getelementptr inbounds %"struct.OpenImageIO_v2_6_0::DDS_pvt::dds_header", ptr %m_dds12, i32 0, i32 4
  %10 = load i32, ptr %width, align 8
  %11 = load ptr, ptr %w.addr, align 8
  store i32 %10, ptr %11, align 4
  %m_dds13 = getelementptr inbounds %"class.OpenImageIO_v2_6_0::DDSInput", ptr %this1, i32 0, i32 11
  %height = getelementptr inbounds %"struct.OpenImageIO_v2_6_0::DDS_pvt::dds_header", ptr %m_dds13, i32 0, i32 3
  %12 = load i32, ptr %height, align 4
  %13 = load ptr, ptr %h.addr, align 8
  store i32 %12, ptr %13, align 4
  %m_dds14 = getelementptr inbounds %"class.OpenImageIO_v2_6_0::DDSInput", ptr %this1, i32 0, i32 11
  %depth = getelementptr inbounds %"struct.OpenImageIO_v2_6_0::DDS_pvt::dds_header", ptr %m_dds14, i32 0, i32 6
  %14 = load i32, ptr %depth, align 8
  %15 = load ptr, ptr %d.addr, align 8
  store i32 %14, ptr %15, align 4
  %m_dds15 = getelementptr inbounds %"class.OpenImageIO_v2_6_0::DDSInput", ptr %this1, i32 0, i32 11
  %mipmaps = getelementptr inbounds %"struct.OpenImageIO_v2_6_0::DDS_pvt::dds_header", ptr %m_dds15, i32 0, i32 7
  %16 = load i32, ptr %mipmaps, align 4
  %cmp16 = icmp ult i32 %16, 2
  br i1 %cmp16, label %if.then17, label %if.end31

if.then17:                                        ; preds = %for.body
  %17 = load i32, ptr %j, align 4
  %cmp18 = icmp sgt i32 %17, 0
  br i1 %cmp18, label %if.then19, label %if.end30

if.then19:                                        ; preds = %if.then17
  %m_compression = getelementptr inbounds %"class.OpenImageIO_v2_6_0::DDSInput", ptr %this1, i32 0, i32 10
  %18 = load i32, ptr %m_compression, align 4
  %cmp20 = icmp ne i32 %18, 0
  br i1 %cmp20, label %if.then21, label %if.else

if.then21:                                        ; preds = %if.then19
  %19 = load ptr, ptr %w.addr, align 8
  %20 = load i32, ptr %19, align 4
  %conv22 = zext i32 %20 to i64
  %21 = load ptr, ptr %h.addr, align 8
  %22 = load i32, ptr %21, align 4
  %conv23 = zext i32 %22 to i64
  %m_compression24 = getelementptr inbounds %"class.OpenImageIO_v2_6_0::DDSInput", ptr %this1, i32 0, i32 10
  %23 = load i32, ptr %m_compression24, align 4
  %call = call noundef i64 @_ZN18OpenImageIO_v2_6_0L22GetStorageRequirementsEmmNS_7DDS_pvt11CompressionE(i64 noundef %conv22, i64 noundef %conv23, i32 noundef %23)
  %conv25 = trunc i64 %call to i32
  store i32 %conv25, ptr %len, align 4
  br label %if.end28

if.else:                                          ; preds = %if.then19
  %24 = load ptr, ptr %w.addr, align 8
  %25 = load i32, ptr %24, align 4
  %26 = load ptr, ptr %h.addr, align 8
  %27 = load i32, ptr %26, align 4
  %mul = mul i32 %25, %27
  %28 = load ptr, ptr %d.addr, align 8
  %29 = load i32, ptr %28, align 4
  %mul26 = mul i32 %mul, %29
  %m_Bpp = getelementptr inbounds %"class.OpenImageIO_v2_6_0::DDSInput", ptr %this1, i32 0, i32 7
  %30 = load i32, ptr %m_Bpp, align 8
  %mul27 = mul i32 %mul26, %30
  store i32 %mul27, ptr %len, align 4
  br label %if.end28

if.end28:                                         ; preds = %if.else, %if.then21
  %31 = load i32, ptr %len, align 4
  %32 = load i32, ptr %ofs, align 4
  %add29 = add i32 %32, %31
  store i32 %add29, ptr %ofs, align 4
  br label %if.end30

if.end30:                                         ; preds = %if.end28, %if.then17
  br label %for.inc64

if.end31:                                         ; preds = %for.body
  %33 = load i32, ptr %j, align 4
  %34 = load i32, ptr %cubeface.addr, align 4
  %cmp32 = icmp eq i32 %33, %34
  br i1 %cmp32, label %cond.true, label %cond.false

cond.true:                                        ; preds = %if.end31
  %35 = load i32, ptr %miplevel.addr, align 4
  br label %cond.end

cond.false:                                       ; preds = %if.end31
  %m_dds33 = getelementptr inbounds %"class.OpenImageIO_v2_6_0::DDSInput", ptr %this1, i32 0, i32 11
  %mipmaps34 = getelementptr inbounds %"struct.OpenImageIO_v2_6_0::DDS_pvt::dds_header", ptr %m_dds33, i32 0, i32 7
  %36 = load i32, ptr %mipmaps34, align 4
  br label %cond.end

cond.end:                                         ; preds = %cond.false, %cond.true
  %cond = phi i32 [ %35, %cond.true ], [ %36, %cond.false ]
  store i32 %cond, ptr %seekLevel, align 4
  store i32 0, ptr %i, align 4
  br label %for.cond35

for.cond35:                                       ; preds = %for.inc, %cond.end
  %37 = load i32, ptr %i, align 4
  %38 = load i32, ptr %seekLevel, align 4
  %cmp36 = icmp slt i32 %37, %38
  br i1 %cmp36, label %for.body37, label %for.end

for.body37:                                       ; preds = %for.cond35
  %m_compression38 = getelementptr inbounds %"class.OpenImageIO_v2_6_0::DDSInput", ptr %this1, i32 0, i32 10
  %39 = load i32, ptr %m_compression38, align 4
  %cmp39 = icmp ne i32 %39, 0
  br i1 %cmp39, label %if.then40, label %if.else46

if.then40:                                        ; preds = %for.body37
  %40 = load ptr, ptr %w.addr, align 8
  %41 = load i32, ptr %40, align 4
  %conv41 = zext i32 %41 to i64
  %42 = load ptr, ptr %h.addr, align 8
  %43 = load i32, ptr %42, align 4
  %conv42 = zext i32 %43 to i64
  %m_compression43 = getelementptr inbounds %"class.OpenImageIO_v2_6_0::DDSInput", ptr %this1, i32 0, i32 10
  %44 = load i32, ptr %m_compression43, align 4
  %call44 = call noundef i64 @_ZN18OpenImageIO_v2_6_0L22GetStorageRequirementsEmmNS_7DDS_pvt11CompressionE(i64 noundef %conv41, i64 noundef %conv42, i32 noundef %44)
  %conv45 = trunc i64 %call44 to i32
  store i32 %conv45, ptr %len, align 4
  br label %if.end51

if.else46:                                        ; preds = %for.body37
  %45 = load ptr, ptr %w.addr, align 8
  %46 = load i32, ptr %45, align 4
  %47 = load ptr, ptr %h.addr, align 8
  %48 = load i32, ptr %47, align 4
  %mul47 = mul i32 %46, %48
  %49 = load ptr, ptr %d.addr, align 8
  %50 = load i32, ptr %49, align 4
  %mul48 = mul i32 %mul47, %50
  %m_Bpp49 = getelementptr inbounds %"class.OpenImageIO_v2_6_0::DDSInput", ptr %this1, i32 0, i32 7
  %51 = load i32, ptr %m_Bpp49, align 8
  %mul50 = mul i32 %mul48, %51
  store i32 %mul50, ptr %len, align 4
  br label %if.end51

if.end51:                                         ; preds = %if.else46, %if.then40
  %52 = load i32, ptr %len, align 4
  %53 = load i32, ptr %ofs, align 4
  %add52 = add i32 %53, %52
  store i32 %add52, ptr %ofs, align 4
  %54 = load ptr, ptr %w.addr, align 8
  %55 = load i32, ptr %54, align 4
  %shr = lshr i32 %55, 1
  store i32 %shr, ptr %54, align 4
  %56 = load ptr, ptr %w.addr, align 8
  %57 = load i32, ptr %56, align 4
  %tobool53 = icmp ne i32 %57, 0
  br i1 %tobool53, label %if.end55, label %if.then54

if.then54:                                        ; preds = %if.end51
  %58 = load ptr, ptr %w.addr, align 8
  store i32 1, ptr %58, align 4
  br label %if.end55

if.end55:                                         ; preds = %if.then54, %if.end51
  %59 = load ptr, ptr %h.addr, align 8
  %60 = load i32, ptr %59, align 4
  %shr56 = lshr i32 %60, 1
  store i32 %shr56, ptr %59, align 4
  %61 = load ptr, ptr %h.addr, align 8
  %62 = load i32, ptr %61, align 4
  %tobool57 = icmp ne i32 %62, 0
  br i1 %tobool57, label %if.end59, label %if.then58

if.then58:                                        ; preds = %if.end55
  %63 = load ptr, ptr %h.addr, align 8
  store i32 1, ptr %63, align 4
  br label %if.end59

if.end59:                                         ; preds = %if.then58, %if.end55
  %64 = load ptr, ptr %d.addr, align 8
  %65 = load i32, ptr %64, align 4
  %shr60 = lshr i32 %65, 1
  store i32 %shr60, ptr %64, align 4
  %66 = load ptr, ptr %d.addr, align 8
  %67 = load i32, ptr %66, align 4
  %tobool61 = icmp ne i32 %67, 0
  br i1 %tobool61, label %if.end63, label %if.then62

if.then62:                                        ; preds = %if.end59
  %68 = load ptr, ptr %d.addr, align 8
  store i32 1, ptr %68, align 4
  br label %if.end63

if.end63:                                         ; preds = %if.then62, %if.end59
  br label %for.inc

for.inc:                                          ; preds = %if.end63
  %69 = load i32, ptr %i, align 4
  %inc = add nsw i32 %69, 1
  store i32 %inc, ptr %i, align 4
  br label %for.cond35, !llvm.loop !43

for.end:                                          ; preds = %for.cond35
  br label %for.inc64

for.inc64:                                        ; preds = %for.end, %if.end30
  %70 = load i32, ptr %j, align 4
  %inc65 = add nsw i32 %70, 1
  store i32 %inc65, ptr %j, align 4
  br label %for.cond, !llvm.loop !44

for.end66:                                        ; preds = %for.cond
  %71 = load i32, ptr %ofs, align 4
  %conv67 = zext i32 %71 to i64
  %call68 = call noundef zeroext i1 @_ZN18OpenImageIO_v2_6_010ImageInput6ioseekEli(ptr noundef nonnull align 8 dereferenceable(184) %this1, i64 noundef %conv67, i32 noundef 0)
  br label %return

return:                                           ; preds = %for.end66, %if.then
  ret void
}