; Function Attrs: mustprogress uwtable
define hidden void @_ZN18OpenImageIO_v2_6_08DDSInput22internal_seek_subimageEiiRjS1_S1_(ptr noundef nonnull align 8 dereferenceable(448) %this, i32 noundef %cubeface, i32 noundef %miplevel, ptr nocapture noundef nonnull align 4 dereferenceable(4) %w, ptr nocapture noundef nonnull align 4 dereferenceable(4) %h, ptr nocapture noundef nonnull align 4 dereferenceable(4) %d) local_unnamed_addr #11 align 2 {
entry:
  %flags2 = getelementptr inbounds i8, ptr %this, i64 408
  %0 = load i32, ptr %flags2, align 8
  %and = and i32 %0, 512
  %tobool.not = icmp eq i32 %and, 0
  br i1 %tobool.not, label %if.end, label %land.lhs.true

land.lhs.true:                                    ; preds = %entry
  %shl = shl i32 1024, %cubeface
  %and5 = and i32 %0, %shl
  %tobool6.not = icmp eq i32 %and5, 0
  br i1 %tobool6.not, label %if.then, label %if.end

if.then:                                          ; preds = %land.lhs.true
  store i32 0, ptr %d, align 4
  store i32 0, ptr %h, align 4
  store i32 0, ptr %w, align 4
  br label %return

if.end:                                           ; preds = %land.lhs.true, %entry
  %fourCC = getelementptr inbounds i8, ptr %this, i64 380
  %1 = load i32, ptr %fourCC, align 4
  %cmp = icmp eq i32 %1, 808540228
  %spec.select = select i1 %cmp, i32 148, i32 128
  %cmp11.not49 = icmp slt i32 %cubeface, 0
  br i1 %cmp11.not49, label %for.end66, label %for.body.lr.ph

for.body.lr.ph:                                   ; preds = %if.end
  %width = getelementptr inbounds i8, ptr %this, i64 312
  %height = getelementptr inbounds i8, ptr %this, i64 308
  %depth = getelementptr inbounds i8, ptr %this, i64 320
  %mipmaps = getelementptr inbounds i8, ptr %this, i64 324
  %m_compression38 = getelementptr inbounds i8, ptr %this, i64 292
  %m_Bpp49 = getelementptr inbounds i8, ptr %this, i64 256
  br label %for.body

for.body:                                         ; preds = %for.body.lr.ph, %for.inc64
  %ofs.151 = phi i32 [ %spec.select, %for.body.lr.ph ], [ %ofs.3, %for.inc64 ]
  %j.050 = phi i32 [ 0, %for.body.lr.ph ], [ %inc65, %for.inc64 ]
  %2 = load i32, ptr %width, align 8
  store i32 %2, ptr %w, align 4
  %3 = load i32, ptr %height, align 4
  store i32 %3, ptr %h, align 4
  %4 = load i32, ptr %depth, align 8
  store i32 %4, ptr %d, align 4
  %5 = load i32, ptr %mipmaps, align 4
  %cmp16 = icmp ult i32 %5, 2
  br i1 %cmp16, label %if.then17, label %if.end31

if.then17:                                        ; preds = %for.body
  %cmp18.not = icmp eq i32 %j.050, 0
  br i1 %cmp18.not, label %for.inc64, label %if.then19

if.then19:                                        ; preds = %if.then17
  %6 = load i32, ptr %m_compression38, align 4
  %cmp20.not = icmp eq i32 %6, 0
  %7 = load i32, ptr %w, align 4
  br i1 %cmp20.not, label %if.else, label %if.then21

if.then21:                                        ; preds = %if.then19
  %conv22 = zext i32 %7 to i64
  %8 = load i32, ptr %h, align 4
  %conv23 = zext i32 %8 to i64
  %sub.i = add nuw nsw i64 %conv22, 3
  %div1.i = lshr i64 %sub.i, 2
  %sub2.i = add nuw nsw i64 %conv23, 3
  %div32.i = lshr i64 %sub2.i, 2
  %mul.i = mul nuw nsw i64 %div32.i, %div1.i
  %cmp1.i.i = icmp eq i32 %6, 1
  %cmp2.i.i = icmp eq i32 %6, 6
  %9 = or i1 %cmp1.i.i, %cmp2.i.i
  %10 = select i1 %9, i64 3, i64 4
  %mul4.i = shl i64 %mul.i, %10
  %conv25 = trunc i64 %mul4.i to i32
  br label %if.end28

if.else:                                          ; preds = %if.then19
  %11 = load i32, ptr %h, align 4
  %12 = load i32, ptr %m_Bpp49, align 8
  %mul = mul i32 %7, %4
  %mul26 = mul i32 %mul, %11
  %mul27 = mul i32 %mul26, %12
  br label %if.end28

if.end28:                                         ; preds = %if.else, %if.then21
  %len.0 = phi i32 [ %conv25, %if.then21 ], [ %mul27, %if.else ]
  %add29 = add i32 %len.0, %ofs.151
  br label %for.inc64

if.end31:                                         ; preds = %for.body
  %cmp32 = icmp eq i32 %j.050, %cubeface
  %miplevel. = select i1 %cmp32, i32 %miplevel, i32 %5
  %cmp3646 = icmp sgt i32 %miplevel., 0
  br i1 %cmp3646, label %for.body37, label %for.inc64

for.body37:                                       ; preds = %if.end31, %if.end51
  %13 = phi i32 [ %storemerge36, %if.end51 ], [ %4, %if.end31 ]
  %i.048 = phi i32 [ %inc, %if.end51 ], [ 0, %if.end31 ]
  %ofs.247 = phi i32 [ %add52, %if.end51 ], [ %ofs.151, %if.end31 ]
  %14 = load i32, ptr %m_compression38, align 4
  %cmp39.not = icmp eq i32 %14, 0
  %15 = load i32, ptr %w, align 4
  br i1 %cmp39.not, label %if.else46, label %if.then40

if.then40:                                        ; preds = %for.body37
  %conv41 = zext i32 %15 to i64
  %16 = load i32, ptr %h, align 4
  %conv42 = zext i32 %16 to i64
  %sub.i38 = add nuw nsw i64 %conv41, 3
  %div1.i39 = lshr i64 %sub.i38, 2
  %sub2.i40 = add nuw nsw i64 %conv42, 3
  %div32.i41 = lshr i64 %sub2.i40, 2
  %mul.i42 = mul nuw nsw i64 %div32.i41, %div1.i39
  %cmp1.i.i43 = icmp eq i32 %14, 1
  %cmp2.i.i44 = icmp eq i32 %14, 6
  %17 = or i1 %cmp1.i.i43, %cmp2.i.i44
  %18 = select i1 %17, i64 3, i64 4
  %mul4.i45 = shl i64 %mul.i42, %18
  %conv45 = trunc i64 %mul4.i45 to i32
  br label %if.end51

if.else46:                                        ; preds = %for.body37
  %19 = load i32, ptr %h, align 4
  %mul47 = mul i32 %19, %15
  %mul48 = mul i32 %mul47, %13
  %20 = load i32, ptr %m_Bpp49, align 8
  %mul50 = mul i32 %mul48, %20
  br label %if.end51

if.end51:                                         ; preds = %if.else46, %if.then40
  %len.1 = phi i32 [ %conv45, %if.then40 ], [ %mul50, %if.else46 ]
  %add52 = add i32 %len.1, %ofs.247
  %shr = lshr i32 %15, 1
  %tobool53.not.inv = icmp ugt i32 %15, 1
  %spec.select37 = select i1 %tobool53.not.inv, i32 %shr, i32 1
  store i32 %spec.select37, ptr %w, align 4
  %21 = load i32, ptr %h, align 4
  %shr56 = lshr i32 %21, 1
  %tobool57.not.inv = icmp ugt i32 %21, 1
  %storemerge35 = select i1 %tobool57.not.inv, i32 %shr56, i32 1
  store i32 %storemerge35, ptr %h, align 4
  %22 = load i32, ptr %d, align 4
  %shr60 = lshr i32 %22, 1
  %tobool61.not.inv = icmp ugt i32 %22, 1
  %storemerge36 = select i1 %tobool61.not.inv, i32 %shr60, i32 1
  store i32 %storemerge36, ptr %d, align 4
  %inc = add nuw nsw i32 %i.048, 1
  %exitcond.not = icmp eq i32 %inc, %miplevel.
  br i1 %exitcond.not, label %for.inc64, label %for.body37, !llvm.loop !46

for.inc64:                                        ; preds = %if.end51, %if.end31, %if.then17, %if.end28
  %ofs.3 = phi i32 [ %add29, %if.end28 ], [ %ofs.151, %if.then17 ], [ %ofs.151, %if.end31 ], [ %add52, %if.end51 ]
  %inc65 = add nuw i32 %j.050, 1
  %exitcond53.not = icmp eq i32 %j.050, %cubeface
  br i1 %exitcond53.not, label %for.end66, label %for.body, !llvm.loop !47

for.end66:                                        ; preds = %for.inc64, %if.end
  %ofs.1.lcssa = phi i32 [ %spec.select, %if.end ], [ %ofs.3, %for.inc64 ]
  %conv67 = zext i32 %ofs.1.lcssa to i64
  %call68 = tail call noundef zeroext i1 @_ZN18OpenImageIO_v2_6_010ImageInput6ioseekEli(ptr noundef nonnull align 8 dereferenceable(184) %this, i64 noundef %conv67, i32 noundef 0)
  br label %return

return:                                           ; preds = %for.end66, %if.then
  ret void
}